; Function Attrs: nounwind uwtable
define zeroext range(i8 0, 2) i8 @l_Array_anyMUnsafe_any___at_Lean_Linter_UnusedVariables_collectReferences_go___spec__14(ptr noundef readonly captures(none) %0, i64 noundef %1, i64 noundef %2) local_unnamed_addr #1 {
  %.not29 = icmp eq i64 %1, %2
  br i1 %.not29, label %.loopexit, label %.lr.ph

.lr.ph:                                           ; preds = %3
  %4 = getelementptr inbounds nuw i8, ptr %0, i64 24
  br label %5

5:                                                ; preds = %.lr.ph, %lean_dec.exit
  %.01530 = phi i64 [ %1, %.lr.ph ], [ %30, %lean_dec.exit ]
  %6 = getelementptr inbounds nuw [0 x ptr], ptr %4, i64 0, i64 %.01530
  %7 = load ptr, ptr %6, align 8, !tbaa !4
  %8 = ptrtoint ptr %7 to i64
  %9 = and i64 %8, 1
  %.not.i20 = icmp eq i64 %9, 0
  br i1 %.not.i20, label %10, label %lean_array_uget.exit

10:                                               ; preds = %5
  %.val.i.i = load i32, ptr %7, align 4, !tbaa !8
  %11 = icmp sgt i32 %.val.i.i, 0
  br i1 %11, label %12, label %14, !prof !11

12:                                               ; preds = %10
  %13 = add nuw i32 %.val.i.i, 1
  store i32 %13, ptr %7, align 4, !tbaa !8
  br label %lean_array_uget.exit

14:                                               ; preds = %10
  %.not.i.i = icmp eq i32 %.val.i.i, 0
  br i1 %.not.i.i, label %lean_array_uget.exit, label %15

15:                                               ; preds = %14
  tail call void @lean_inc_ref_cold(ptr noundef nonnull %7) #7
  br label %lean_array_uget.exit

lean_array_uget.exit:                             ; preds = %5, %12, %14, %15
  %16 = load ptr, ptr @l_Array_anyMUnsafe_any___at_Lean_Linter_UnusedVariables_collectReferences_go___spec__14___closed__1, align 8, !tbaa !4
  %17 = tail call ptr @l_Lean_Elab_InfoTree_findInfo_x3f(ptr noundef %16, ptr noundef %7) #7
  %18 = ptrtoint ptr %17 to i64
  %19 = and i64 %18, 1
  %.not.i21 = icmp eq i64 %19, 0
  br i1 %.not.i21, label %lean_obj_tag.exit.thread, label %lean_obj_tag.exit

lean_obj_tag.exit:                                ; preds = %lean_array_uget.exit
  %20 = and i64 %18, 8589934590
  %21 = icmp eq i64 %20, 0
  br i1 %21, label %lean_dec.exit, label %.loopexit

lean_obj_tag.exit.thread:                         ; preds = %lean_array_uget.exit
  %22 = getelementptr i8, ptr %17, i64 4
  %.val.i = load i32, ptr %22, align 4
  %23 = icmp ult i32 %.val.i, 16777216
  br i1 %23, label %lean_dec.exit, label %.thread

.thread:                                          ; preds = %lean_obj_tag.exit.thread
  %24 = load i32, ptr %17, align 4, !tbaa !8
  %25 = icmp sgt i32 %24, 1
  br i1 %25, label %26, label %28, !prof !11

26:                                               ; preds = %.thread
  %27 = add nsw i32 %24, -1
  store i32 %27, ptr %17, align 4, !tbaa !8
  br label %.loopexit

28:                                               ; preds = %.thread
  %.not.i = icmp eq i32 %24, 0
  br i1 %.not.i, label %.loopexit, label %29

29:                                               ; preds = %28
  tail call void @lean_dec_ref_cold(ptr noundef nonnull %17) #7
  br label %.loopexit

lean_dec.exit:                                    ; preds = %lean_obj_tag.exit, %lean_obj_tag.exit.thread
  %30 = add i64 %.01530, 1
  %.not = icmp eq i64 %30, %2
  br i1 %.not, label %.loopexit, label %5

.loopexit:                                        ; preds = %lean_dec.exit, %lean_obj_tag.exit, %3, %29, %28, %26
  %.2.ph = phi i8 [ 1, %26 ], [ 1, %28 ], [ 1, %29 ], [ 0, %3 ], [ 0, %lean_dec.exit ], [ 1, %lean_obj_tag.exit ]
  ret i8 %.2.ph
}